target datalayout = "e-m:e-p270:32:32-p271:32:32-p272:64:64-i64:64-i128:128-f80:128-n8:16:32:64-S128"
target triple = "x86_64-pc-linux-gnu"

%struct.__va_list_tag = type { i32, i32, ptr, ptr }

@mprintf_disabled = global i16 0, align 2
@mprintf_verbose = global i16 0, align 2
@mprintf_quiet = global i16 0, align 2
@mprintf_stdout = global i16 0, align 2
@mprintf_nowarn = global i16 0, align 2
@.str.6 = private unnamed_addr constant [10 x i8] c"ERROR: %s\00", align 1
@.str.7 = private unnamed_addr constant [12 x i8] c"WARNING: %s\00", align 1
@.str.8 = private unnamed_addr constant [3 x i8] c"%s\00", align 1
@stdout = external global ptr, align 8
@stderr = external global ptr, align 8

; Function Attrs: nounwind uwtable
define void @mprintf(i32 noundef %0, ptr noundef %1, ...) #0 {
  %3 = alloca i32, align 4
  %4 = alloca ptr, align 8
  %5 = alloca [1 x %struct.__va_list_tag], align 16
  %6 = alloca ptr, align 8
  %7 = alloca [512 x i8], align 16
  %8 = alloca ptr, align 8
  %9 = alloca ptr, align 8
  %10 = alloca i64, align 8
  %11 = alloca i32, align 4
  %12 = alloca i64, align 8
  %13 = alloca i64, align 8
  %14 = alloca ptr, align 8
  store i32 %0, ptr %3, align 4, !tbaa !3
  store ptr %1, ptr %4, align 8, !tbaa !7
  call void @llvm.lifetime.start.p0(i64 24, ptr %5) #10
  call void @llvm.lifetime.start.p0(i64 8, ptr %6) #10
  call void @llvm.lifetime.start.p0(i64 512, ptr %7) #10
  call void @llvm.lifetime.start.p0(i64 8, ptr %8) #10
  store ptr null, ptr %8, align 8, !tbaa !7
  call void @llvm.lifetime.start.p0(i64 8, ptr %9) #10
  call void @llvm.lifetime.start.p0(i64 8, ptr %10) #10
  %15 = load i16, ptr @mprintf_disabled, align 2, !tbaa !15
  %16 = icmp ne i16 %15, 0
  br i1 %16, label %17, label %18

17:                                               ; preds = %2
  store i32 1, ptr %11, align 4
  br label %214

18:                                               ; preds = %2
  %19 = load ptr, ptr @stdout, align 8, !tbaa !19
  store ptr %19, ptr %6, align 8, !tbaa !19
  call void @llvm.lifetime.start.p0(i64 8, ptr %12) #10
  store i64 1, ptr %12, align 8, !tbaa !10
  call void @llvm.lifetime.start.p0(i64 8, ptr %13) #10
  call void @llvm.lifetime.start.p0(i64 8, ptr %14) #10
  %20 = getelementptr inbounds [1 x %struct.__va_list_tag], ptr %5, i64 0, i64 0
  call void @llvm.va_start.p0(ptr %20)
  %21 = load ptr, ptr %4, align 8, !tbaa !7
  %22 = call i64 @strlen(ptr noundef %21) #11
  store i64 %22, ptr %10, align 8, !tbaa !10
  store i64 0, ptr %13, align 8, !tbaa !10
  br label %23

23:                                               ; preds = %111, %18
  %24 = load i64, ptr %13, align 8, !tbaa !10
  %25 = load i64, ptr %10, align 8, !tbaa !10
  %26 = sub i64 %25, 1
  %27 = icmp ult i64 %24, %26
  br i1 %27, label %28, label %114

28:                                               ; preds = %23
  %29 = load ptr, ptr %4, align 8, !tbaa !7
  %30 = load i64, ptr %13, align 8, !tbaa !10
  %31 = getelementptr inbounds nuw i8, ptr %29, i64 %30
  %32 = load i8, ptr %31, align 1, !tbaa !12
  %33 = sext i8 %32 to i32
  %34 = icmp eq i32 %33, 37
  br i1 %34, label %35, label %110

35:                                               ; preds = %28
  %36 = load ptr, ptr %4, align 8, !tbaa !7
  %37 = load i64, ptr %13, align 8, !tbaa !10
  %38 = add i64 %37, 1
  store i64 %38, ptr %13, align 8, !tbaa !10
  %39 = getelementptr inbounds nuw i8, ptr %36, i64 %38
  %40 = load i8, ptr %39, align 1, !tbaa !12
  %41 = sext i8 %40 to i32
  switch i32 %41, label %95 [
    i32 115, label %42
    i32 102, label %67
    i32 108, label %81
  ]

42:                                               ; preds = %35
  %43 = getelementptr inbounds [1 x %struct.__va_list_tag], ptr %5, i64 0, i64 0
  %44 = getelementptr inbounds nuw %struct.__va_list_tag, ptr %43, i32 0, i32 0
  %45 = load i32, ptr %44, align 16
  %46 = icmp ule i32 %45, 40
  br i1 %46, label %47, label %52

47:                                               ; preds = %42
  %48 = getelementptr inbounds nuw %struct.__va_list_tag, ptr %43, i32 0, i32 3
  %49 = load ptr, ptr %48, align 16
  %50 = getelementptr i8, ptr %49, i32 %45
  %51 = add i32 %45, 8
  store i32 %51, ptr %44, align 16
  br label %56

52:                                               ; preds = %42
  %53 = getelementptr inbounds nuw %struct.__va_list_tag, ptr %43, i32 0, i32 2
  %54 = load ptr, ptr %53, align 8
  %55 = getelementptr i8, ptr %54, i32 8
  store ptr %55, ptr %53, align 8
  br label %56

56:                                               ; preds = %52, %47
  %57 = phi ptr [ %50, %47 ], [ %54, %52 ]
  %58 = load ptr, ptr %57, align 8, !tbaa !7
  store ptr %58, ptr %14, align 8, !tbaa !7
  %59 = load ptr, ptr %14, align 8, !tbaa !7
  %60 = icmp ne ptr %59, null
  br i1 %60, label %61, label %66

61:                                               ; preds = %56
  %62 = load ptr, ptr %14, align 8, !tbaa !7
  %63 = call i64 @strlen(ptr noundef %62) #11
  %64 = load i64, ptr %12, align 8, !tbaa !10
  %65 = add i64 %64, %63
  store i64 %65, ptr %12, align 8, !tbaa !10
  br label %66

66:                                               ; preds = %61, %56
  br label %109

67:                                               ; preds = %35
  %68 = getelementptr inbounds [1 x %struct.__va_list_tag], ptr %5, i64 0, i64 0
  %69 = getelementptr inbounds nuw %struct.__va_list_tag, ptr %68, i32 0, i32 1
  %70 = load i32, ptr %69, align 4
  %71 = icmp ule i32 %70, 160
  br i1 %71, label %72, label %74

72:                                               ; preds = %67
  %73 = add i32 %70, 16
  store i32 %73, ptr %69, align 4
  br label %78

74:                                               ; preds = %67
  %75 = getelementptr inbounds nuw %struct.__va_list_tag, ptr %68, i32 0, i32 2
  %76 = load ptr, ptr %75, align 8
  %77 = getelementptr i8, ptr %76, i32 8
  store ptr %77, ptr %75, align 8
  br label %78

78:                                               ; preds = %74, %72
  %79 = load i64, ptr %12, align 8, !tbaa !10
  %80 = add i64 %79, 25
  store i64 %80, ptr %12, align 8, !tbaa !10
  br label %109

81:                                               ; preds = %35
  %82 = getelementptr inbounds [1 x %struct.__va_list_tag], ptr %5, i64 0, i64 0
  %83 = getelementptr inbounds nuw %struct.__va_list_tag, ptr %82, i32 0, i32 0
  %84 = load i32, ptr %83, align 16
  %85 = icmp ule i32 %84, 40
  br i1 %85, label %86, label %88

86:                                               ; preds = %81
  %87 = add i32 %84, 8
  store i32 %87, ptr %83, align 16
  br label %92

88:                                               ; preds = %81
  %89 = getelementptr inbounds nuw %struct.__va_list_tag, ptr %82, i32 0, i32 2
  %90 = load ptr, ptr %89, align 8
  %91 = getelementptr i8, ptr %90, i32 8
  store ptr %91, ptr %89, align 8
  br label %92

92:                                               ; preds = %88, %86
  %93 = load i64, ptr %12, align 8, !tbaa !10
  %94 = add i64 %93, 20
  store i64 %94, ptr %12, align 8, !tbaa !10
  br label %109

95:                                               ; preds = %35
  %96 = getelementptr inbounds [1 x %struct.__va_list_tag], ptr %5, i64 0, i64 0
  %97 = getelementptr inbounds nuw %struct.__va_list_tag, ptr %96, i32 0, i32 0
  %98 = load i32, ptr %97, align 16
  %99 = icmp ule i32 %98, 40
  br i1 %99, label %100, label %102

100:                                              ; preds = %95
  %101 = add i32 %98, 8
  store i32 %101, ptr %97, align 16
  br label %106

102:                                              ; preds = %95
  %103 = getelementptr inbounds nuw %struct.__va_list_tag, ptr %96, i32 0, i32 2
  %104 = load ptr, ptr %103, align 8
  %105 = getelementptr i8, ptr %104, i32 8
  store ptr %105, ptr %103, align 8
  br label %106

106:                                              ; preds = %102, %100
  %107 = load i64, ptr %12, align 8, !tbaa !10
  %108 = add i64 %107, 10
  store i64 %108, ptr %12, align 8, !tbaa !10
  br label %109

109:                                              ; preds = %106, %92, %78, %66
  br label %110

110:                                              ; preds = %109, %28
  br label %111

111:                                              ; preds = %110
  %112 = load i64, ptr %13, align 8, !tbaa !10
  %113 = add i64 %112, 1
  store i64 %113, ptr %13, align 8, !tbaa !10
  br label %23

114:                                              ; preds = %23
  %115 = getelementptr inbounds [1 x %struct.__va_list_tag], ptr %5, i64 0, i64 0
  call void @llvm.va_end.p0(ptr %115)
  %116 = load i64, ptr %12, align 8, !tbaa !10
  %117 = load i64, ptr %10, align 8, !tbaa !10
  %118 = add i64 %117, %116
  store i64 %118, ptr %10, align 8, !tbaa !10
  call void @llvm.lifetime.end.p0(i64 8, ptr %14) #10
  call void @llvm.lifetime.end.p0(i64 8, ptr %13) #10
  call void @llvm.lifetime.end.p0(i64 8, ptr %12) #10
  %119 = load i64, ptr %10, align 8, !tbaa !10
  %120 = icmp ule i64 %119, 512
  br i1 %120, label %121, label %123

121:                                              ; preds = %114
  store i64 512, ptr %10, align 8, !tbaa !10
  %122 = getelementptr inbounds [512 x i8], ptr %7, i64 0, i64 0
  store ptr %122, ptr %9, align 8, !tbaa !7
  br label %133

123:                                              ; preds = %114
  %124 = load i64, ptr %10, align 8, !tbaa !10
  %125 = call noalias ptr @malloc(i64 noundef %124) #12
  store ptr %125, ptr %8, align 8, !tbaa !7
  %126 = load ptr, ptr %8, align 8, !tbaa !7
  %127 = icmp ne ptr %126, null
  br i1 %127, label %130, label %128

128:                                              ; preds = %123
  store i64 512, ptr %10, align 8, !tbaa !10
  %129 = getelementptr inbounds [512 x i8], ptr %7, i64 0, i64 0
  store ptr %129, ptr %9, align 8, !tbaa !7
  br label %132

130:                                              ; preds = %123
  %131 = load ptr, ptr %8, align 8, !tbaa !7
  store ptr %131, ptr %9, align 8, !tbaa !7
  br label %132

132:                                              ; preds = %130, %128
  br label %133

133:                                              ; preds = %132, %121
  %134 = getelementptr inbounds [1 x %struct.__va_list_tag], ptr %5, i64 0, i64 0
  call void @llvm.va_start.p0(ptr %134)
  %135 = load ptr, ptr %9, align 8, !tbaa !7
  %136 = load i64, ptr %10, align 8, !tbaa !10
  %137 = load ptr, ptr %4, align 8, !tbaa !7
  %138 = getelementptr inbounds [1 x %struct.__va_list_tag], ptr %5, i64 0, i64 0
  %139 = call i32 @vsnprintf(ptr noundef %135, i64 noundef %136, ptr noundef %137, ptr noundef %138) #10
  %140 = getelementptr inbounds [1 x %struct.__va_list_tag], ptr %5, i64 0, i64 0
  call void @llvm.va_end.p0(ptr %140)
  %141 = load ptr, ptr %9, align 8, !tbaa !7
  %142 = load i64, ptr %10, align 8, !tbaa !10
  %143 = sub i64 %142, 1
  %144 = getelementptr inbounds nuw i8, ptr %141, i64 %143
  store i8 0, ptr %144, align 1, !tbaa !12
  %145 = load i32, ptr %3, align 4, !tbaa !3
  %146 = icmp eq i32 %145, 5
  br i1 %146, label %147, label %156

147:                                              ; preds = %133
  %148 = load i16, ptr @mprintf_stdout, align 2, !tbaa !15
  %149 = icmp ne i16 %148, 0
  br i1 %149, label %152, label %150

150:                                              ; preds = %147
  %151 = load ptr, ptr @stderr, align 8, !tbaa !19
  store ptr %151, ptr %6, align 8, !tbaa !19
  br label %152

152:                                              ; preds = %150, %147
  %153 = load ptr, ptr %6, align 8, !tbaa !19
  %154 = load ptr, ptr %9, align 8, !tbaa !7
  %155 = call i32 (ptr, ptr, ...) @fprintf(ptr noundef %153, ptr noundef @.str.6, ptr noundef %154) #10
  br label %201

156:                                              ; preds = %133
  %157 = load i16, ptr @mprintf_quiet, align 2, !tbaa !15
  %158 = icmp ne i16 %157, 0
  br i1 %158, label %200, label %159

159:                                              ; preds = %156
  %160 = load i32, ptr %3, align 4, !tbaa !3
  %161 = icmp eq i32 %160, 4
  br i1 %161, label %162, label %175

162:                                              ; preds = %159
  %163 = load i16, ptr @mprintf_nowarn, align 2, !tbaa !15
  %164 = icmp ne i16 %163, 0
  br i1 %164, label %174, label %165

165:                                              ; preds = %162
  %166 = load i16, ptr @mprintf_stdout, align 2, !tbaa !15
  %167 = icmp ne i16 %166, 0
  br i1 %167, label %170, label %168

168:                                              ; preds = %165
  %169 = load ptr, ptr @stderr, align 8, !tbaa !19
  store ptr %169, ptr %6, align 8, !tbaa !19
  br label %170

170:                                              ; preds = %168, %165
  %171 = load ptr, ptr %6, align 8, !tbaa !19
  %172 = load ptr, ptr %9, align 8, !tbaa !7
  %173 = call i32 (ptr, ptr, ...) @fprintf(ptr noundef %171, ptr noundef @.str.7, ptr noundef %172) #10
  br label %174

174:                                              ; preds = %170, %162
  br label %199

175:                                              ; preds = %159
  %176 = load i32, ptr %3, align 4, !tbaa !3
  %177 = icmp eq i32 %176, 2
  br i1 %177, label %178, label %186

178:                                              ; preds = %175
  %179 = load i16, ptr @mprintf_verbose, align 2, !tbaa !15
  %180 = icmp ne i16 %179, 0
  br i1 %180, label %181, label %185

181:                                              ; preds = %178
  %182 = load ptr, ptr %6, align 8, !tbaa !19
  %183 = load ptr, ptr %9, align 8, !tbaa !7
  %184 = call i32 (ptr, ptr, ...) @fprintf(ptr noundef %182, ptr noundef @.str.8, ptr noundef %183) #10
  br label %185

185:                                              ; preds = %181, %178
  br label %198

186:                                              ; preds = %175
  %187 = load i32, ptr %3, align 4, !tbaa !3
  %188 = icmp eq i32 %187, 0
  br i1 %188, label %189, label %193

189:                                              ; preds = %186
  %190 = load ptr, ptr %6, align 8, !tbaa !19
  %191 = load ptr, ptr %9, align 8, !tbaa !7
  %192 = call i32 (ptr, ptr, ...) @fprintf(ptr noundef %190, ptr noundef @.str.8, ptr noundef %191) #10
  br label %197

193:                                              ; preds = %186
  %194 = load ptr, ptr %6, align 8, !tbaa !19
  %195 = load ptr, ptr %9, align 8, !tbaa !7
  %196 = call i32 (ptr, ptr, ...) @fprintf(ptr noundef %194, ptr noundef @.str.8, ptr noundef %195) #10
  br label %197

197:                                              ; preds = %193, %189
  br label %198

198:                                              ; preds = %197, %185
  br label %199

199:                                              ; preds = %198, %174
  br label %200

200:                                              ; preds = %199, %156
  br label %201

201:                                              ; preds = %200, %152
  %202 = load ptr, ptr %6, align 8, !tbaa !19
  %203 = load ptr, ptr @stdout, align 8, !tbaa !19
  %204 = icmp eq ptr %202, %203
  br i1 %204, label %205, label %208

205:                                              ; preds = %201
  %206 = load ptr, ptr @stdout, align 8, !tbaa !19
  %207 = call i32 @fflush(ptr noundef %206)
  br label %208

208:                                              ; preds = %205, %201
  %209 = load i64, ptr %10, align 8, !tbaa !10
  %210 = icmp ugt i64 %209, 512
  br i1 %210, label %211, label %213

211:                                              ; preds = %208
  %212 = load ptr, ptr %8, align 8, !tbaa !7
  call void @free(ptr noundef %212) #10
  br label %213

213:                                              ; preds = %211, %208
  store i32 0, ptr %11, align 4
  br label %214

214:                                              ; preds = %213, %17
  call void @llvm.lifetime.end.p0(i64 8, ptr %10) #10
  call void @llvm.lifetime.end.p0(i64 8, ptr %9) #10
  call void @llvm.lifetime.end.p0(i64 8, ptr %8) #10
  call void @llvm.lifetime.end.p0(i64 512, ptr %7) #10
  call void @llvm.lifetime.end.p0(i64 8, ptr %6) #10
  call void @llvm.lifetime.end.p0(i64 24, ptr %5) #10
  %215 = load i32, ptr %11, align 4
  switch i32 %215, label %217 [
    i32 0, label %216
    i32 1, label %216
  ]

216:                                              ; preds = %214, %214
  ret void

217:                                              ; preds = %214
  unreachable
}