; Function Attrs: nounwind uwtable
define void @mprintf(i32 noundef %0, ptr noundef readonly captures(none) %1, ...) local_unnamed_addr #0 {
  %3 = alloca [1 x %struct.__va_list_tag], align 16
  %4 = alloca [512 x i8], align 16
  call void @llvm.lifetime.start.p0(i64 24, ptr nonnull %3) #16
  call void @llvm.lifetime.start.p0(i64 512, ptr nonnull %4) #16
  %5 = load i16, ptr @mprintf_disabled, align 2, !tbaa !14
  %.not = icmp eq i16 %5, 0
  br i1 %.not, label %6, label %112

6:                                                ; preds = %2
  %7 = load ptr, ptr @stdout, align 8, !tbaa !18
  call void @llvm.va_start.p0(ptr nonnull %3)
  %8 = call i64 @strlen(ptr noundef nonnull dereferenceable(1) %1) #17
  %9 = add i64 %8, -1
  %.not74 = icmp eq i64 %9, 0
  br i1 %.not74, label %._crit_edge, label %.lr.ph

.lr.ph:                                           ; preds = %6
  %.promoted = load i32, ptr %3, align 16
  %10 = getelementptr inbounds nuw i8, ptr %3, i64 8
  %11 = getelementptr inbounds nuw i8, ptr %3, i64 4
  %12 = getelementptr inbounds nuw i8, ptr %3, i64 16
  %13 = load ptr, ptr %12, align 16
  %.promoted72 = load ptr, ptr %10, align 8
  %.promoted73 = load i32, ptr %11, align 4
  br label %14

14:                                               ; preds = %.lr.ph, %71
  %15 = phi i32 [ %.promoted73, %.lr.ph ], [ %72, %71 ]
  %16 = phi ptr [ %.promoted72, %.lr.ph ], [ %73, %71 ]
  %.04171 = phi i64 [ 0, %.lr.ph ], [ %75, %71 ]
  %.04370 = phi i64 [ 1, %.lr.ph ], [ %.144, %71 ]
  %17 = phi i32 [ %.promoted, %.lr.ph ], [ %74, %71 ]
  %18 = getelementptr inbounds nuw i8, ptr %1, i64 %.04171
  %19 = load i8, ptr %18, align 1, !tbaa !3
  %20 = icmp eq i8 %19, 37
  br i1 %20, label %21, label %71

21:                                               ; preds = %14
  %22 = add nuw i64 %.04171, 1
  %23 = getelementptr inbounds nuw i8, ptr %1, i64 %22
  %24 = load i8, ptr %23, align 1, !tbaa !3
  switch i8 %24, label %61 [
    i8 115, label %25
    i8 102, label %41
    i8 108, label %51
  ]

25:                                               ; preds = %21
  %26 = icmp ult i32 %17, 41
  br i1 %26, label %27, label %31

27:                                               ; preds = %25
  %28 = zext nneg i32 %17 to i64
  %29 = getelementptr i8, ptr %13, i64 %28
  %30 = add nuw nsw i32 %17, 8
  store i32 %30, ptr %3, align 16
  br label %33

31:                                               ; preds = %25
  %32 = getelementptr i8, ptr %16, i64 8
  store ptr %32, ptr %10, align 8
  br label %33

33:                                               ; preds = %31, %27
  %34 = phi ptr [ %16, %27 ], [ %32, %31 ]
  %35 = phi i32 [ %30, %27 ], [ %17, %31 ]
  %36 = phi ptr [ %29, %27 ], [ %16, %31 ]
  %37 = load ptr, ptr %36, align 8, !tbaa !6
  %.not66 = icmp eq ptr %37, null
  br i1 %.not66, label %71, label %38

38:                                               ; preds = %33
  %39 = call i64 @strlen(ptr noundef nonnull dereferenceable(1) %37) #17
  %40 = add i64 %39, %.04370
  br label %71

41:                                               ; preds = %21
  %42 = icmp ult i32 %15, 161
  br i1 %42, label %43, label %45

43:                                               ; preds = %41
  %44 = add nuw nsw i32 %15, 16
  store i32 %44, ptr %11, align 4
  br label %47

45:                                               ; preds = %41
  %46 = getelementptr i8, ptr %16, i64 8
  store ptr %46, ptr %10, align 8
  br label %47

47:                                               ; preds = %45, %43
  %48 = phi i32 [ %15, %45 ], [ %44, %43 ]
  %49 = phi ptr [ %46, %45 ], [ %16, %43 ]
  %50 = add i64 %.04370, 25
  br label %71

51:                                               ; preds = %21
  %52 = icmp ult i32 %17, 41
  br i1 %52, label %53, label %55

53:                                               ; preds = %51
  %54 = add nuw nsw i32 %17, 8
  store i32 %54, ptr %3, align 16
  br label %57

55:                                               ; preds = %51
  %56 = getelementptr i8, ptr %16, i64 8
  store ptr %56, ptr %10, align 8
  br label %57

57:                                               ; preds = %55, %53
  %58 = phi ptr [ %56, %55 ], [ %16, %53 ]
  %59 = phi i32 [ %17, %55 ], [ %54, %53 ]
  %60 = add i64 %.04370, 20
  br label %71

61:                                               ; preds = %21
  %62 = icmp ult i32 %17, 41
  br i1 %62, label %63, label %65

63:                                               ; preds = %61
  %64 = add nuw nsw i32 %17, 8
  store i32 %64, ptr %3, align 16
  br label %67

65:                                               ; preds = %61
  %66 = getelementptr i8, ptr %16, i64 8
  store ptr %66, ptr %10, align 8
  br label %67

67:                                               ; preds = %65, %63
  %68 = phi ptr [ %66, %65 ], [ %16, %63 ]
  %69 = phi i32 [ %17, %65 ], [ %64, %63 ]
  %70 = add i64 %.04370, 10
  br label %71

71:                                               ; preds = %14, %33, %38, %67, %57, %47
  %72 = phi i32 [ %15, %67 ], [ %15, %57 ], [ %48, %47 ], [ %15, %38 ], [ %15, %33 ], [ %15, %14 ]
  %73 = phi ptr [ %68, %67 ], [ %58, %57 ], [ %49, %47 ], [ %34, %38 ], [ %34, %33 ], [ %16, %14 ]
  %74 = phi i32 [ %69, %67 ], [ %59, %57 ], [ %17, %47 ], [ %35, %38 ], [ %35, %33 ], [ %17, %14 ]
  %.144 = phi i64 [ %70, %67 ], [ %60, %57 ], [ %50, %47 ], [ %40, %38 ], [ %.04370, %33 ], [ %.04370, %14 ]
  %.142 = phi i64 [ %22, %67 ], [ %22, %57 ], [ %22, %47 ], [ %22, %38 ], [ %22, %33 ], [ %.04171, %14 ]
  %75 = add i64 %.142, 1
  %76 = icmp ult i64 %75, %9
  br i1 %76, label %14, label %._crit_edge

._crit_edge:                                      ; preds = %71, %6
  %.043.lcssa = phi i64 [ 1, %6 ], [ %.144, %71 ]
  call void @llvm.va_end.p0(ptr nonnull %3)
  %77 = add i64 %.043.lcssa, %8
  %78 = icmp ult i64 %77, 513
  br i1 %78, label %81, label %79

79:                                               ; preds = %._crit_edge
  %80 = call noalias ptr @malloc(i64 noundef %77) #18
  %.not58 = icmp eq ptr %80, null
  %.67 = select i1 %.not58, ptr %4, ptr %80
  %.68 = select i1 %.not58, i64 512, i64 %77
  br label %81

81:                                               ; preds = %79, %._crit_edge
  %.047 = phi ptr [ null, %._crit_edge ], [ %80, %79 ]
  %.046 = phi ptr [ %4, %._crit_edge ], [ %.67, %79 ]
  %.045 = phi i64 [ 512, %._crit_edge ], [ %.68, %79 ]
  call void @llvm.va_start.p0(ptr nonnull %3)
  %82 = call i32 @vsnprintf(ptr noundef nonnull %.046, i64 noundef %.045, ptr noundef nonnull %1, ptr noundef nonnull %3) #16
  call void @llvm.va_end.p0(ptr nonnull %3)
  %83 = getelementptr i8, ptr %.046, i64 %.045
  %84 = getelementptr i8, ptr %83, i64 -1
  store i8 0, ptr %84, align 1, !tbaa !3
  %85 = icmp eq i32 %0, 5
  br i1 %85, label %86, label %90

86:                                               ; preds = %81
  %87 = load i16, ptr @mprintf_stdout, align 2, !tbaa !14
  %.not65 = icmp eq i16 %87, 0
  %88 = load ptr, ptr @stderr, align 8
  %spec.select = select i1 %.not65, ptr %88, ptr %7
  %89 = call i32 (ptr, ptr, ...) @fprintf(ptr noundef %spec.select, ptr noundef nonnull @.str.6, ptr noundef nonnull %.046) #16
  br label %104

90:                                               ; preds = %81
  %91 = load i16, ptr @mprintf_quiet, align 2, !tbaa !14
  %.not59 = icmp eq i16 %91, 0
  br i1 %.not59, label %92, label %104

92:                                               ; preds = %90
  switch i32 %0, label %103 [
    i32 4, label %93
    i32 2, label %99
    i32 0, label %102
  ]

93:                                               ; preds = %92
  %94 = load i16, ptr @mprintf_nowarn, align 2, !tbaa !14
  %.not63 = icmp eq i16 %94, 0
  br i1 %.not63, label %95, label %104

95:                                               ; preds = %93
  %96 = load i16, ptr @mprintf_stdout, align 2, !tbaa !14
  %.not64 = icmp eq i16 %96, 0
  %97 = load ptr, ptr @stderr, align 8
  %spec.select69 = select i1 %.not64, ptr %97, ptr %7
  %98 = call i32 (ptr, ptr, ...) @fprintf(ptr noundef %spec.select69, ptr noundef nonnull @.str.7, ptr noundef nonnull %.046) #16
  br label %104

99:                                               ; preds = %92
  %100 = load i16, ptr @mprintf_verbose, align 2, !tbaa !14
  %.not61 = icmp eq i16 %100, 0
  br i1 %.not61, label %104, label %101

101:                                              ; preds = %99
  %fputs62 = call i32 @fputs(ptr nonnull %.046, ptr %7)
  br label %104

102:                                              ; preds = %92
  %fputs60 = call i32 @fputs(ptr nonnull %.046, ptr %7)
  br label %104

103:                                              ; preds = %92
  %fputs = call i32 @fputs(ptr nonnull %.046, ptr %7)
  br label %104

104:                                              ; preds = %90, %101, %99, %103, %102, %93, %95, %86
  %.1 = phi ptr [ %spec.select, %86 ], [ %7, %90 ], [ %7, %93 ], [ %spec.select69, %95 ], [ %7, %101 ], [ %7, %99 ], [ %7, %102 ], [ %7, %103 ]
  %105 = load ptr, ptr @stdout, align 8, !tbaa !18
  %106 = icmp eq ptr %.1, %105
  br i1 %106, label %107, label %109

107:                                              ; preds = %104
  %108 = call i32 @fflush(ptr noundef %105)
  br label %109

109:                                              ; preds = %107, %104
  %110 = icmp ugt i64 %.045, 512
  br i1 %110, label %111, label %112

111:                                              ; preds = %109
  call void @free(ptr noundef %.047) #16
  br label %112

112:                                              ; preds = %109, %111, %2
  call void @llvm.lifetime.end.p0(i64 512, ptr nonnull %4) #16
  call void @llvm.lifetime.end.p0(i64 24, ptr nonnull %3) #16
  ret void
}